target datalayout = "e-m:e-p270:32:32-p271:32:32-p272:64:64-i64:64-i128:128-f80:128-n8:16:32:64-S128"
target triple = "x86_64-pc-linux-gnu"

%struct.dbd_job_suspend_msg = type { i32, i64, i32, i32, i64, i64 }

; Function Attrs: nounwind uwtable
define internal void @_pack_job_suspend_msg(ptr noundef %0, i16 noundef zeroext %1, ptr noundef %2) #0 {
  %4 = alloca ptr, align 8
  %5 = alloca i16, align 2
  %6 = alloca ptr, align 8
  store ptr %0, ptr %4, align 8
  store i16 %1, ptr %5, align 2
  store ptr %2, ptr %6, align 8
  %7 = load i16, ptr %5, align 2
  %8 = zext i16 %7 to i32
  %9 = icmp sge i32 %8, 10240
  br i1 %9, label %10, label %35

10:                                               ; preds = %3
  %11 = load ptr, ptr %4, align 8
  %12 = getelementptr inbounds nuw %struct.dbd_job_suspend_msg, ptr %11, i32 0, i32 0
  %13 = load i32, ptr %12, align 8
  %14 = load ptr, ptr %6, align 8
  call void @pack32(i32 noundef %13, ptr noundef %14)
  %15 = load ptr, ptr %4, align 8
  %16 = getelementptr inbounds nuw %struct.dbd_job_suspend_msg, ptr %15, i32 0, i32 1
  %17 = load i64, ptr %16, align 8
  %18 = load ptr, ptr %6, align 8
  call void @pack64(i64 noundef %17, ptr noundef %18)
  %19 = load ptr, ptr %4, align 8
  %20 = getelementptr inbounds nuw %struct.dbd_job_suspend_msg, ptr %19, i32 0, i32 2
  %21 = load i32, ptr %20, align 8
  %22 = load ptr, ptr %6, align 8
  call void @pack32(i32 noundef %21, ptr noundef %22)
  %23 = load ptr, ptr %4, align 8
  %24 = getelementptr inbounds nuw %struct.dbd_job_suspend_msg, ptr %23, i32 0, i32 3
  %25 = load i32, ptr %24, align 4
  %26 = load ptr, ptr %6, align 8
  call void @pack32(i32 noundef %25, ptr noundef %26)
  %27 = load ptr, ptr %4, align 8
  %28 = getelementptr inbounds nuw %struct.dbd_job_suspend_msg, ptr %27, i32 0, i32 4
  %29 = load i64, ptr %28, align 8
  %30 = load ptr, ptr %6, align 8
  call void @pack_time(i64 noundef %29, ptr noundef %30)
  %31 = load ptr, ptr %4, align 8
  %32 = getelementptr inbounds nuw %struct.dbd_job_suspend_msg, ptr %31, i32 0, i32 5
  %33 = load i64, ptr %32, align 8
  %34 = load ptr, ptr %6, align 8
  call void @pack_time(i64 noundef %33, ptr noundef %34)
  br label %35

35:                                               ; preds = %10, %3
  ret void
}