; Function Attrs: nounwind uwtable
define internal fastcc void @_pack_job_suspend_msg(ptr noundef readonly captures(none) %0, i16 noundef zeroext %1, ptr noundef %2) unnamed_addr #0 {
  %4 = icmp ugt i16 %1, 10239
  br i1 %4, label %5, label %17

5:                                                ; preds = %3
  %6 = load i32, ptr %0, align 8
  tail call void @pack32(i32 noundef %6, ptr noundef %2) #5
  %7 = getelementptr inbounds nuw i8, ptr %0, i64 8
  %8 = load i64, ptr %7, align 8
  tail call void @pack64(i64 noundef %8, ptr noundef %2) #5
  %9 = getelementptr inbounds nuw i8, ptr %0, i64 16
  %10 = load i32, ptr %9, align 8
  tail call void @pack32(i32 noundef %10, ptr noundef %2) #5
  %11 = getelementptr inbounds nuw i8, ptr %0, i64 20
  %12 = load i32, ptr %11, align 4
  tail call void @pack32(i32 noundef %12, ptr noundef %2) #5
  %13 = getelementptr inbounds nuw i8, ptr %0, i64 24
  %14 = load i64, ptr %13, align 8
  tail call void @pack_time(i64 noundef %14, ptr noundef %2) #5
  %15 = getelementptr inbounds nuw i8, ptr %0, i64 32
  %16 = load i64, ptr %15, align 8
  tail call void @pack_time(i64 noundef %16, ptr noundef %2) #5
  br label %17

17:                                               ; preds = %5, %3
  ret void
}